; Function Attrs: mustprogress nounwind uwtable
define hidden void @_ZN8G1RemSet18print_summary_infoEv(ptr nocapture noundef nonnull readnone align 8 dereferenceable(48) %0) local_unnamed_addr #1 align 2 {
  %2 = alloca %class.LogImpl.7, align 1
  %3 = alloca %class.G1RemSetSummary, align 8
  %4 = alloca %class.LogStream, align 8
  %5 = load volatile ptr, ptr getelementptr inbounds (i8, ptr @_ZN16LogTagSetMappingILN6LogTag4typeE49ELS1_130ELS1_43ELS1_0ELS1_0ELS1_0EE7_tagsetE, i64 48), align 8
  %.not = icmp eq ptr %5, null
  br i1 %.not, label %27, label %6

6:                                                ; preds = %1
  %7 = call noundef nonnull align 1 dereferenceable(1) ptr (ptr, ptr, ...) @_ZN7LogImplILN6LogTag4typeE49ELS1_130ELS1_43ELS1_0ELS1_0ELS1_0EE5traceEPKcz(ptr noundef nonnull align 1 dereferenceable(1) %2, ptr noundef nonnull @.str.6)
  call void @_ZN15G1RemSetSummaryC1Eb(ptr noundef nonnull align 8 dereferenceable(16) %3, i1 noundef zeroext true) #18
  %8 = call align 8 ptr @llvm.threadlocal.address.p0(ptr align 8 @_ZN6Thread12_thr_currentE)
  %9 = load ptr, ptr %8, align 8
  %10 = getelementptr inbounds i8, ptr %9, i64 800
  %11 = load ptr, ptr %10, align 8
  %12 = getelementptr inbounds i8, ptr %11, i64 24
  %13 = load ptr, ptr %12, align 8
  %14 = getelementptr inbounds i8, ptr %11, i64 32
  %15 = load ptr, ptr %14, align 8
  %16 = getelementptr inbounds i8, ptr %11, i64 40
  %17 = load ptr, ptr %16, align 8
  %18 = getelementptr inbounds i8, ptr %11, i64 8
  %19 = load i64, ptr %18, align 8
  call void @_ZN12outputStreamC2Eb(ptr noundef nonnull align 8 dereferenceable(56) %4, i1 noundef zeroext false) #18
  store ptr getelementptr inbounds inrange(-16, 40) (i8, ptr @_ZTV17LogStreamImplBase, i64 16), ptr %4, align 8
  %20 = getelementptr inbounds i8, ptr %4, i64 56
  call void @_ZN17LogStreamImplBase10LineBufferC1Ev(ptr noundef nonnull align 8 dereferenceable(88) %20) #18
  %21 = getelementptr inbounds i8, ptr %4, i64 144
  store i32 1, ptr %21, align 8
  %.sroa.21.0..sroa_idx.i.i = getelementptr inbounds i8, ptr %4, i64 152
  store ptr @_ZN16LogTagSetMappingILN6LogTag4typeE49ELS1_130ELS1_43ELS1_0ELS1_0ELS1_0EE7_tagsetE, ptr %.sroa.21.0..sroa_idx.i.i, align 8
  store ptr getelementptr inbounds inrange(-16, 40) (i8, ptr @_ZTV9LogStream, i64 16), ptr %4, align 8
  call void @_ZN15G1RemSetSummary8print_onEP12outputStreamb(ptr noundef nonnull align 8 dereferenceable(16) %3, ptr noundef nonnull %4, i1 noundef zeroext true) #18
  call void @_ZN13LogStreamImplI15LogTargetHandleED2Ev(ptr noundef nonnull align 8 dereferenceable(160) %4) #18
  %22 = load ptr, ptr %13, align 8
  %.not.i.i.i.i = icmp eq ptr %22, null
  br i1 %.not.i.i.i.i, label %24, label %23

23:                                               ; preds = %6
  call void @_ZN5Arena17set_size_in_bytesEm(ptr noundef nonnull align 8 dereferenceable(48) %11, i64 noundef %19) #18
  call void @_ZN5Chunk9next_chopEPS_(ptr noundef nonnull %13) #18
  br label %24

24:                                               ; preds = %23, %6
  %25 = load ptr, ptr %14, align 8
  %.not8.i.i.i.i = icmp eq ptr %25, %15
  br i1 %.not8.i.i.i.i, label %_ZN12ResourceMarkD2Ev.exit, label %26

26:                                               ; preds = %24
  store ptr %13, ptr %12, align 8
  store ptr %15, ptr %14, align 8
  store ptr %17, ptr %16, align 8
  br label %_ZN12ResourceMarkD2Ev.exit

_ZN12ResourceMarkD2Ev.exit:                       ; preds = %24, %26
  call void @_ZN15G1RemSetSummaryD1Ev(ptr noundef nonnull align 8 dereferenceable(16) %3) #18
  br label %27

27:                                               ; preds = %_ZN12ResourceMarkD2Ev.exit, %1
  ret void
}